target datalayout = "e-m:e-p270:32:32-p271:32:32-p272:64:64-i64:64-i128:128-f80:128-n8:16:32:64-S128"
target triple = "x86_64-unknown-linux-gnu"

%class.sls_engine = type { ptr, %"class.sls_engine::stats", %class.mpz_manager, %class.powers, %class.mpz, %class.mpz, %class.mpz, i8, %class.bv_util, %class.sls_tracker, %class.sls_evaluator, %class.ptr_vector.25, i32, i32, i32, i32, i32, i32, i32, i32, i32, i32, i32, i32, i32, i32 }
%"class.sls_engine::stats" = type { i32, [4 x i8], %class.stopwatch, i32, i32, i32, i32, i32, i32, i32, [4 x i8] }
%class.stopwatch = type <{ %"class.std::chrono::time_point", %"class.std::chrono::duration", i8, [7 x i8] }>
%"class.std::chrono::time_point" = type { %"class.std::chrono::duration" }
%"class.std::chrono::duration" = type { i64 }
%class.mpz_manager = type { %class.small_object_allocator, %"class.std::recursive_mutex", %class.mpn_manager, i32, %class.mpz, %class.mpz }
%class.small_object_allocator = type { [32 x ptr], [32 x ptr], i64 }
%"class.std::recursive_mutex" = type { %"class.std::__recursive_mutex_base" }
%"class.std::__recursive_mutex_base" = type { %union.pthread_mutex_t }
%union.pthread_mutex_t = type { %struct.__pthread_mutex_s }
%struct.__pthread_mutex_s = type { i32, i32, i32, i32, i32, i16, i16, %struct.__pthread_internal_list }
%struct.__pthread_internal_list = type { ptr, ptr }
%class.mpn_manager = type { i8 }
%class.powers = type { %class.u_map, ptr }
%class.u_map = type { %class.map }
%class.map = type { %class.table2map }
%class.table2map = type { %class.core_hashtable }
%class.core_hashtable = type <{ ptr, i32, i32, i32, [4 x i8] }>
%class.mpz = type { i32, i8, ptr }
%class.bv_util = type { %class.bv_recognizers, ptr, ptr }
%class.bv_recognizers = type { i32 }
%class.sls_tracker = type { ptr, ptr, ptr, ptr, %class.random_gen, i32, i32, %class.mpz, %class.mpz, %class.mpz, %class.obj_hashtable, %class.obj_map, %class.obj_map.4, %class.obj_map.9, %class.ptr_vector, %class.ptr_vector, %class.obj_map.14, i32, i32, i32, double, i32, double, double, i32, double, i32, [4 x i8], %class.obj_map.19, ptr, i32, [4 x i8], %class.obj_map.19, double, %class.obj_hashtable }
%class.random_gen = type { i32 }
%class.obj_map = type { %class.core_hashtable.2 }
%class.core_hashtable.2 = type <{ ptr, i32, i32, i32, [4 x i8] }>
%class.obj_map.4 = type { %class.core_hashtable.5 }
%class.core_hashtable.5 = type <{ ptr, i32, i32, i32, [4 x i8] }>
%class.obj_map.9 = type { %class.core_hashtable.10 }
%class.core_hashtable.10 = type <{ ptr, i32, i32, i32, [4 x i8] }>
%class.ptr_vector = type { %class.vector }
%class.vector = type { ptr }
%class.obj_map.14 = type { %class.core_hashtable.15 }
%class.core_hashtable.15 = type <{ ptr, i32, i32, i32, [4 x i8] }>
%class.obj_map.19 = type { %class.core_hashtable.20 }
%class.core_hashtable.20 = type <{ ptr, i32, i32, i32, [4 x i8] }>
%class.obj_hashtable = type { %class.core_hashtable.base.1, [4 x i8] }
%class.core_hashtable.base.1 = type <{ ptr, i32, i32, i32 }>
%class.sls_evaluator = type { ptr, ptr, i32, i32, ptr, ptr, %class.mpz, %class.mpz, %class.mpz, ptr, %class.ref_buffer, %class.vector.24, %class.vector.24 }
%class.ref_buffer = type { %class.ref_buffer_core }
%class.ref_buffer_core = type { %class.ref_manager_wrapper, %class.ptr_buffer }
%class.ref_manager_wrapper = type { ptr }
%class.ptr_buffer = type { %class.buffer }
%class.buffer = type { ptr, i32, i32, [16 x %"union.std::aligned_storage<8, 8>::type"] }
%"union.std::aligned_storage<8, 8>::type" = type { [8 x i8] }
%class.vector.24 = type { ptr }
%class.ptr_vector.25 = type { %class.vector.26 }
%class.vector.26 = type { ptr }

; Function Attrs: mustprogress nounwind uwtable
define linkonce_odr hidden noundef double @_ZN11sls_tracker11get_top_sumEv(ptr noundef nonnull align 8 dereferenceable(400) %this) #5 comdat align 2 {
entry:
  %this.addr = alloca ptr, align 8
  store ptr %this, ptr %this.addr, align 8
  %this1 = load ptr, ptr %this.addr, align 8
  %m_top_sum = getelementptr inbounds %class.sls_tracker, ptr %this1, i32 0, i32 33
  %0 = load double, ptr %m_top_sum, align 8
  ret double %0
}

; Function Attrs: mustprogress uwtable
define hidden noundef double @_ZN10sls_engine13serious_scoreEP9func_declRK3mpz(ptr noundef nonnull align 8 dereferenceable(1512) %this, ptr noundef %fd, ptr noundef nonnull align 8 dereferenceable(16) %new_value) #4 align 2 {
entry:
  %this.addr = alloca ptr, align 8
  %fd.addr = alloca ptr, align 8
  %new_value.addr = alloca ptr, align 8
  store ptr %this, ptr %this.addr, align 8
  store ptr %fd, ptr %fd.addr, align 8
  store ptr %new_value, ptr %new_value.addr, align 8
  %this1 = load ptr, ptr %this.addr, align 8
  %m_evaluator = getelementptr inbounds %class.sls_engine, ptr %this1, i32 0, i32 10
  %0 = load ptr, ptr %fd.addr, align 8
  %1 = load ptr, ptr %new_value.addr, align 8
  call void @_ZN13sls_evaluator14serious_updateEP9func_declRK3mpz(ptr noundef nonnull align 8 dereferenceable(264) %m_evaluator, ptr noundef %0, ptr noundef nonnull align 8 dereferenceable(16) %1)
  %m_stats = getelementptr inbounds %class.sls_engine, ptr %this1, i32 0, i32 1
  %m_incr_evals = getelementptr inbounds %"class.sls_engine::stats", ptr %m_stats, i32 0, i32 4
  %2 = load i32, ptr %m_incr_evals, align 4
  %inc = add i32 %2, 1
  store i32 %inc, ptr %m_incr_evals, align 4
  %m_tracker = getelementptr inbounds %class.sls_engine, ptr %this1, i32 0, i32 9
  %call = call noundef double @_ZN11sls_tracker11get_top_sumEv(ptr noundef nonnull align 8 dereferenceable(400) %m_tracker)
  ret double %call
}